target datalayout = "e-m:e-p270:32:32-p271:32:32-p272:64:64-i64:64-i128:128-f80:128-n8:16:32:64-S128"
target triple = "x86_64-pc-linux-gnu"

%struct.RelationData = type { %struct.RelFileLocator, ptr, i32, i32, i8, i8, i8, i8, i8, i32, i32, i32, i32, ptr, ptr, i32, %struct.LockInfoData, ptr, ptr, ptr, ptr, ptr, i8, ptr, ptr, ptr, ptr, ptr, ptr, i32, ptr, i8, ptr, ptr, i32, i8, i32, ptr, i8, ptr, ptr, ptr, ptr, ptr, ptr, ptr, i32, ptr, ptr, ptr, ptr, ptr, ptr, ptr, ptr, ptr, ptr, ptr, ptr, ptr, ptr, ptr, ptr, ptr, ptr, ptr, i32, i8, ptr }
%struct.RelFileLocator = type { i32, i32, i32 }
%struct.LockInfoData = type { %struct.LockRelId }
%struct.LockRelId = type { i32, i32 }
%struct.FormData_pg_class = type { i32, %struct.nameData, i32, i32, i32, i32, i32, i32, i32, i32, float, i32, i32, i8, i8, i8, i8, i16, i16, i8, i8, i8, i8, i8, i8, i8, i8, i32, i32, i32 }
%struct.nameData = type { [64 x i8] }
%struct.IndexInfo = type { i32, i32, i32, [32 x i16], ptr, ptr, ptr, ptr, ptr, ptr, ptr, ptr, ptr, ptr, i8, i8, i8, i8, i8, i8, i8, i8, i8, i32, i32, ptr, ptr }
%struct.FormData_pg_index = type { i32, i32, i16, i16, i8, i8, i8, i8, i8, i8, i8, i8, i8, i8, i8, %struct.int2vector }
%struct.int2vector = type { i32, i32, i32, i32, i32, i32, [0 x i16] }

@.str.1 = private unnamed_addr constant [8 x i8] c"index.c\00", align 1
@.str.32 = private unnamed_addr constant [42 x i8] c"missing operator %d(%u,%u) in opfamily %u\00", align 1
@__func__.BuildSpeculativeIndexInfo = private unnamed_addr constant [26 x i8] c"BuildSpeculativeIndexInfo\00", align 1

; Function Attrs: nounwind uwtable
define dso_local void @BuildSpeculativeIndexInfo(ptr noundef %0, ptr noundef %1) #0 {
  %3 = alloca ptr, align 8
  %4 = alloca ptr, align 8
  %5 = alloca i32, align 4
  %6 = alloca i32, align 4
  store ptr %0, ptr %3, align 8
  store ptr %1, ptr %4, align 8
  call void @llvm.lifetime.start.p0(i64 4, ptr %5) #8
  call void @llvm.lifetime.start.p0(i64 4, ptr %6) #8
  %7 = load ptr, ptr %3, align 8
  %8 = getelementptr inbounds nuw %struct.RelationData, ptr %7, i32 0, i32 48
  %9 = load ptr, ptr %8, align 8
  %10 = getelementptr inbounds nuw %struct.FormData_pg_index, ptr %9, i32 0, i32 3
  %11 = load i16, ptr %10, align 2
  %12 = sext i16 %11 to i32
  store i32 %12, ptr %5, align 4
  %13 = load i32, ptr %5, align 4
  %14 = sext i32 %13 to i64
  %15 = mul i64 4, %14
  %16 = call ptr @palloc(i64 noundef %15)
  %17 = load ptr, ptr %4, align 8
  %18 = getelementptr inbounds nuw %struct.IndexInfo, ptr %17, i32 0, i32 11
  store ptr %16, ptr %18, align 8
  %19 = load i32, ptr %5, align 4
  %20 = sext i32 %19 to i64
  %21 = mul i64 4, %20
  %22 = call ptr @palloc(i64 noundef %21)
  %23 = load ptr, ptr %4, align 8
  %24 = getelementptr inbounds nuw %struct.IndexInfo, ptr %23, i32 0, i32 12
  store ptr %22, ptr %24, align 8
  %25 = load i32, ptr %5, align 4
  %26 = sext i32 %25 to i64
  %27 = mul i64 2, %26
  %28 = call ptr @palloc(i64 noundef %27)
  %29 = load ptr, ptr %4, align 8
  %30 = getelementptr inbounds nuw %struct.IndexInfo, ptr %29, i32 0, i32 13
  store ptr %28, ptr %30, align 8
  store i32 0, ptr %6, align 4
  br label %31

31:                                               ; preds = %160, %2
  %32 = load i32, ptr %6, align 4
  %33 = load i32, ptr %5, align 4
  %34 = icmp slt i32 %32, %33
  br i1 %34, label %35, label %163

35:                                               ; preds = %31
  %36 = load ptr, ptr %3, align 8
  %37 = getelementptr inbounds nuw %struct.RelationData, ptr %36, i32 0, i32 13
  %38 = load ptr, ptr %37, align 8
  %39 = getelementptr inbounds nuw %struct.FormData_pg_class, ptr %38, i32 0, i32 6
  %40 = load i32, ptr %39, align 4
  %41 = load ptr, ptr %3, align 8
  %42 = getelementptr inbounds nuw %struct.RelationData, ptr %41, i32 0, i32 52
  %43 = load ptr, ptr %42, align 8
  %44 = load i32, ptr %6, align 4
  %45 = sext i32 %44 to i64
  %46 = getelementptr inbounds i32, ptr %43, i64 %45
  %47 = load i32, ptr %46, align 4
  %48 = load ptr, ptr %3, align 8
  %49 = getelementptr inbounds nuw %struct.RelationData, ptr %48, i32 0, i32 53
  %50 = load ptr, ptr %49, align 8
  %51 = load i32, ptr %6, align 4
  %52 = sext i32 %51 to i64
  %53 = getelementptr inbounds i32, ptr %50, i64 %52
  %54 = load i32, ptr %53, align 4
  %55 = call zeroext i16 @IndexAmTranslateCompareType(i32 noundef 3, i32 noundef %40, i32 noundef %47, i32 noundef %54, i1 noundef zeroext false)
  %56 = load ptr, ptr %4, align 8
  %57 = getelementptr inbounds nuw %struct.IndexInfo, ptr %56, i32 0, i32 13
  %58 = load ptr, ptr %57, align 8
  %59 = load i32, ptr %6, align 4
  %60 = sext i32 %59 to i64
  %61 = getelementptr inbounds i16, ptr %58, i64 %60
  store i16 %55, ptr %61, align 2
  %62 = load ptr, ptr %3, align 8
  %63 = getelementptr inbounds nuw %struct.RelationData, ptr %62, i32 0, i32 52
  %64 = load ptr, ptr %63, align 8
  %65 = load i32, ptr %6, align 4
  %66 = sext i32 %65 to i64
  %67 = getelementptr inbounds i32, ptr %64, i64 %66
  %68 = load i32, ptr %67, align 4
  %69 = load ptr, ptr %3, align 8
  %70 = getelementptr inbounds nuw %struct.RelationData, ptr %69, i32 0, i32 53
  %71 = load ptr, ptr %70, align 8
  %72 = load i32, ptr %6, align 4
  %73 = sext i32 %72 to i64
  %74 = getelementptr inbounds i32, ptr %71, i64 %73
  %75 = load i32, ptr %74, align 4
  %76 = load ptr, ptr %3, align 8
  %77 = getelementptr inbounds nuw %struct.RelationData, ptr %76, i32 0, i32 53
  %78 = load ptr, ptr %77, align 8
  %79 = load i32, ptr %6, align 4
  %80 = sext i32 %79 to i64
  %81 = getelementptr inbounds i32, ptr %78, i64 %80
  %82 = load i32, ptr %81, align 4
  %83 = load ptr, ptr %4, align 8
  %84 = getelementptr inbounds nuw %struct.IndexInfo, ptr %83, i32 0, i32 13
  %85 = load ptr, ptr %84, align 8
  %86 = load i32, ptr %6, align 4
  %87 = sext i32 %86 to i64
  %88 = getelementptr inbounds i16, ptr %85, i64 %87
  %89 = load i16, ptr %88, align 2
  %90 = call i32 @get_opfamily_member(i32 noundef %68, i32 noundef %75, i32 noundef %82, i16 noundef signext %89)
  %91 = load ptr, ptr %4, align 8
  %92 = getelementptr inbounds nuw %struct.IndexInfo, ptr %91, i32 0, i32 11
  %93 = load ptr, ptr %92, align 8
  %94 = load i32, ptr %6, align 4
  %95 = sext i32 %94 to i64
  %96 = getelementptr inbounds i32, ptr %93, i64 %95
  store i32 %90, ptr %96, align 4
  %97 = load ptr, ptr %4, align 8
  %98 = getelementptr inbounds nuw %struct.IndexInfo, ptr %97, i32 0, i32 11
  %99 = load ptr, ptr %98, align 8
  %100 = load i32, ptr %6, align 4
  %101 = sext i32 %100 to i64
  %102 = getelementptr inbounds i32, ptr %99, i64 %101
  %103 = load i32, ptr %102, align 4
  %104 = icmp ne i32 %103, 0
  br i1 %104, label %145, label %105

105:                                              ; preds = %35
  br label %106

106:                                              ; preds = %105
  br i1 true, label %107, label %109

107:                                              ; preds = %106
  %108 = call zeroext i1 @errstart_cold(i32 noundef 21, ptr noundef null) #9
  br i1 %108, label %111, label %142

109:                                              ; preds = %106
  %110 = call zeroext i1 @errstart(i32 noundef 21, ptr noundef null)
  br i1 %110, label %111, label %142

111:                                              ; preds = %109, %107
  %112 = load ptr, ptr %4, align 8
  %113 = getelementptr inbounds nuw %struct.IndexInfo, ptr %112, i32 0, i32 13
  %114 = load ptr, ptr %113, align 8
  %115 = load i32, ptr %6, align 4
  %116 = sext i32 %115 to i64
  %117 = getelementptr inbounds i16, ptr %114, i64 %116
  %118 = load i16, ptr %117, align 2
  %119 = zext i16 %118 to i32
  %120 = load ptr, ptr %3, align 8
  %121 = getelementptr inbounds nuw %struct.RelationData, ptr %120, i32 0, i32 53
  %122 = load ptr, ptr %121, align 8
  %123 = load i32, ptr %6, align 4
  %124 = sext i32 %123 to i64
  %125 = getelementptr inbounds i32, ptr %122, i64 %124
  %126 = load i32, ptr %125, align 4
  %127 = load ptr, ptr %3, align 8
  %128 = getelementptr inbounds nuw %struct.RelationData, ptr %127, i32 0, i32 53
  %129 = load ptr, ptr %128, align 8
  %130 = load i32, ptr %6, align 4
  %131 = sext i32 %130 to i64
  %132 = getelementptr inbounds i32, ptr %129, i64 %131
  %133 = load i32, ptr %132, align 4
  %134 = load ptr, ptr %3, align 8
  %135 = getelementptr inbounds nuw %struct.RelationData, ptr %134, i32 0, i32 52
  %136 = load ptr, ptr %135, align 8
  %137 = load i32, ptr %6, align 4
  %138 = sext i32 %137 to i64
  %139 = getelementptr inbounds i32, ptr %136, i64 %138
  %140 = load i32, ptr %139, align 4
  %141 = call i32 (ptr, ...) @errmsg_internal(ptr noundef @.str.32, i32 noundef %119, i32 noundef %126, i32 noundef %133, i32 noundef %140)
  call void @errfinish(ptr noundef @.str.1, i32 noundef 2705, ptr noundef @__func__.BuildSpeculativeIndexInfo)
  br label %142

142:                                              ; preds = %111, %109, %107
  unreachable

143:                                              ; No predecessors!
  br label %144

144:                                              ; preds = %143
  br label %145

145:                                              ; preds = %144, %35
  %146 = load ptr, ptr %4, align 8
  %147 = getelementptr inbounds nuw %struct.IndexInfo, ptr %146, i32 0, i32 11
  %148 = load ptr, ptr %147, align 8
  %149 = load i32, ptr %6, align 4
  %150 = sext i32 %149 to i64
  %151 = getelementptr inbounds i32, ptr %148, i64 %150
  %152 = load i32, ptr %151, align 4
  %153 = call i32 @get_opcode(i32 noundef %152)
  %154 = load ptr, ptr %4, align 8
  %155 = getelementptr inbounds nuw %struct.IndexInfo, ptr %154, i32 0, i32 12
  %156 = load ptr, ptr %155, align 8
  %157 = load i32, ptr %6, align 4
  %158 = sext i32 %157 to i64
  %159 = getelementptr inbounds i32, ptr %156, i64 %158
  store i32 %153, ptr %159, align 4
  br label %160

160:                                              ; preds = %145
  %161 = load i32, ptr %6, align 4
  %162 = add i32 %161, 1
  store i32 %162, ptr %6, align 4
  br label %31, !llvm.loop !27

163:                                              ; preds = %31
  call void @llvm.lifetime.end.p0(i64 4, ptr %6) #8
  call void @llvm.lifetime.end.p0(i64 4, ptr %5) #8
  ret void
}