; Function Attrs: nounwind uwtable
define dso_local void @BuildSpeculativeIndexInfo(ptr noundef readonly captures(none) %0, ptr noundef captures(none) initializes((136, 160)) %1) local_unnamed_addr #0 {
  %3 = getelementptr inbounds nuw i8, ptr %0, i64 328
  %4 = load ptr, ptr %3, align 8
  %5 = getelementptr inbounds nuw i8, ptr %4, i64 10
  %6 = load i16, ptr %5, align 2
  %7 = sext i16 %6 to i64
  %8 = shl nsw i64 %7, 2
  %9 = tail call ptr @palloc(i64 noundef %8) #11
  %10 = getelementptr inbounds nuw i8, ptr %1, i64 136
  store ptr %9, ptr %10, align 8
  %11 = tail call ptr @palloc(i64 noundef %8) #11
  %12 = getelementptr inbounds nuw i8, ptr %1, i64 144
  store ptr %11, ptr %12, align 8
  %13 = shl nsw i64 %7, 1
  %14 = tail call ptr @palloc(i64 noundef %13) #11
  %15 = getelementptr inbounds nuw i8, ptr %1, i64 152
  store ptr %14, ptr %15, align 8
  %16 = icmp sgt i16 %6, 0
  br i1 %16, label %.lr.ph, label %._crit_edge

.lr.ph:                                           ; preds = %2
  %wide.trip.count = zext nneg i16 %6 to i64
  %17 = getelementptr inbounds nuw i8, ptr %0, i64 56
  %18 = getelementptr inbounds nuw i8, ptr %0, i64 360
  %19 = getelementptr inbounds nuw i8, ptr %0, i64 368
  br label %20

20:                                               ; preds = %.lr.ph, %61
  %indvars.iv = phi i64 [ 0, %.lr.ph ], [ %indvars.iv.next, %61 ]
  %21 = load ptr, ptr %17, align 8
  %22 = getelementptr inbounds nuw i8, ptr %21, i64 84
  %23 = load i32, ptr %22, align 4
  %24 = load ptr, ptr %18, align 8
  %25 = getelementptr inbounds nuw i32, ptr %24, i64 %indvars.iv
  %26 = load i32, ptr %25, align 4
  %27 = load ptr, ptr %19, align 8
  %28 = getelementptr inbounds nuw i32, ptr %27, i64 %indvars.iv
  %29 = load i32, ptr %28, align 4
  %30 = tail call zeroext i16 @IndexAmTranslateCompareType(i32 noundef 3, i32 noundef %23, i32 noundef %26, i32 noundef %29, i1 noundef zeroext false) #11
  %31 = load ptr, ptr %15, align 8
  %32 = getelementptr inbounds nuw i16, ptr %31, i64 %indvars.iv
  store i16 %30, ptr %32, align 2
  %33 = load ptr, ptr %18, align 8
  %34 = getelementptr inbounds nuw i32, ptr %33, i64 %indvars.iv
  %35 = load i32, ptr %34, align 4
  %36 = load ptr, ptr %19, align 8
  %37 = getelementptr inbounds nuw i32, ptr %36, i64 %indvars.iv
  %38 = load i32, ptr %37, align 4
  %39 = load ptr, ptr %15, align 8
  %40 = getelementptr inbounds nuw i16, ptr %39, i64 %indvars.iv
  %41 = load i16, ptr %40, align 2
  %42 = tail call i32 @get_opfamily_member(i32 noundef %35, i32 noundef %38, i32 noundef %38, i16 noundef signext %41) #11
  %43 = load ptr, ptr %10, align 8
  %44 = getelementptr inbounds nuw i32, ptr %43, i64 %indvars.iv
  store i32 %42, ptr %44, align 4
  %45 = load ptr, ptr %10, align 8
  %46 = getelementptr inbounds nuw i32, ptr %45, i64 %indvars.iv
  %47 = load i32, ptr %46, align 4
  %.not = icmp eq i32 %47, 0
  br i1 %.not, label %48, label %61

48:                                               ; preds = %20
  %49 = tail call zeroext i1 @errstart_cold(i32 noundef 21, ptr noundef null) #12
  tail call void @llvm.assume(i1 %49)
  %50 = load ptr, ptr %15, align 8
  %51 = getelementptr inbounds nuw i16, ptr %50, i64 %indvars.iv
  %52 = load i16, ptr %51, align 2
  %53 = zext i16 %52 to i32
  %54 = load ptr, ptr %19, align 8
  %55 = getelementptr inbounds nuw i32, ptr %54, i64 %indvars.iv
  %56 = load i32, ptr %55, align 4
  %57 = load ptr, ptr %18, align 8
  %58 = getelementptr inbounds nuw i32, ptr %57, i64 %indvars.iv
  %59 = load i32, ptr %58, align 4
  %60 = tail call i32 (ptr, ...) @errmsg_internal(ptr noundef nonnull @.str.32, i32 noundef %53, i32 noundef %56, i32 noundef %56, i32 noundef %59) #11
  tail call void @errfinish(ptr noundef nonnull @.str.1, i32 noundef 2705, ptr noundef nonnull @__func__.BuildSpeculativeIndexInfo) #11
  unreachable

61:                                               ; preds = %20
  %62 = tail call i32 @get_opcode(i32 noundef %47) #11
  %63 = load ptr, ptr %12, align 8
  %64 = getelementptr inbounds nuw i32, ptr %63, i64 %indvars.iv
  store i32 %62, ptr %64, align 4
  %indvars.iv.next = add nuw nsw i64 %indvars.iv, 1
  %exitcond.not = icmp eq i64 %indvars.iv.next, %wide.trip.count
  br i1 %exitcond.not, label %._crit_edge, label %20, !llvm.loop !29

._crit_edge:                                      ; preds = %61, %2
  ret void
}